target datalayout = "e-m:e-p270:32:32-p271:32:32-p272:64:64-i64:64-i128:128-f80:128-n8:16:32:64-S128"
target triple = "x86_64-pc-linux-gnu"

@_ZN6icu_779ScriptRun15pairedCharPowerE = dso_local global i32 0, align 4
@_ZN6icu_779ScriptRun15pairedCharExtraE = dso_local global i32 0, align 4

; Function Attrs: mustprogress nounwind uwtable
define dso_local noundef i32 @_ZN6icu_779ScriptRun12getPairIndexEi(i32 noundef %0) #1 align 2 {
  %2 = alloca i32, align 4
  %3 = alloca i32, align 4
  %4 = alloca i32, align 4
  store i32 %0, ptr %2, align 4, !tbaa !4
  call void @llvm.lifetime.start.p0(i64 4, ptr %3) #5
  %5 = load i32, ptr @_ZN6icu_779ScriptRun15pairedCharPowerE, align 4, !tbaa !4
  store i32 %5, ptr %3, align 4, !tbaa !4
  call void @llvm.lifetime.start.p0(i64 4, ptr %4) #5
  store i32 0, ptr %4, align 4, !tbaa !4
  %6 = load i32, ptr %2, align 4, !tbaa !4
  %7 = load i32, ptr @_ZN6icu_779ScriptRun15pairedCharExtraE, align 4, !tbaa !4
  %8 = sext i32 %7 to i64
  %9 = getelementptr inbounds [34 x i32], ptr @_ZN6icu_779ScriptRun11pairedCharsE, i64 0, i64 %8
  %10 = load i32, ptr %9, align 4, !tbaa !4
  %11 = icmp sge i32 %6, %10
  br i1 %11, label %12, label %14

12:                                               ; preds = %1
  %13 = load i32, ptr @_ZN6icu_779ScriptRun15pairedCharExtraE, align 4, !tbaa !4
  store i32 %13, ptr %4, align 4, !tbaa !4
  br label %14

14:                                               ; preds = %12, %1
  br label %15

15:                                               ; preds = %33, %14
  %16 = load i32, ptr %3, align 4, !tbaa !4
  %17 = icmp sgt i32 %16, 1
  br i1 %17, label %18, label %34

18:                                               ; preds = %15
  %19 = load i32, ptr %3, align 4, !tbaa !4
  %20 = ashr i32 %19, 1
  store i32 %20, ptr %3, align 4, !tbaa !4
  %21 = load i32, ptr %2, align 4, !tbaa !4
  %22 = load i32, ptr %4, align 4, !tbaa !4
  %23 = load i32, ptr %3, align 4, !tbaa !4
  %24 = add nsw i32 %22, %23
  %25 = sext i32 %24 to i64
  %26 = getelementptr inbounds [34 x i32], ptr @_ZN6icu_779ScriptRun11pairedCharsE, i64 0, i64 %25
  %27 = load i32, ptr %26, align 4, !tbaa !4
  %28 = icmp sge i32 %21, %27
  br i1 %28, label %29, label %33

29:                                               ; preds = %18
  %30 = load i32, ptr %3, align 4, !tbaa !4
  %31 = load i32, ptr %4, align 4, !tbaa !4
  %32 = add nsw i32 %31, %30
  store i32 %32, ptr %4, align 4, !tbaa !4
  br label %33

33:                                               ; preds = %29, %18
  br label %15, !llvm.loop !9

34:                                               ; preds = %15
  %35 = load i32, ptr %4, align 4, !tbaa !4
  %36 = sext i32 %35 to i64
  %37 = getelementptr inbounds [34 x i32], ptr @_ZN6icu_779ScriptRun11pairedCharsE, i64 0, i64 %36
  %38 = load i32, ptr %37, align 4, !tbaa !4
  %39 = load i32, ptr %2, align 4, !tbaa !4
  %40 = icmp ne i32 %38, %39
  br i1 %40, label %41, label %42

41:                                               ; preds = %34
  store i32 -1, ptr %4, align 4, !tbaa !4
  br label %42

42:                                               ; preds = %41, %34
  %43 = load i32, ptr %4, align 4, !tbaa !4
  call void @llvm.lifetime.end.p0(i64 4, ptr %4) #5
  call void @llvm.lifetime.end.p0(i64 4, ptr %3) #5
  ret i32 %43
}