; Function Attrs: mustprogress nofree norecurse nosync nounwind willreturn memory(read, argmem: none, inaccessiblemem: none) uwtable
define dso_local noundef i32 @_ZN6icu_779ScriptRun12getPairIndexEi(i32 noundef %0) local_unnamed_addr #2 align 2 {
  %2 = load i32, ptr getelementptr inbounds nuw (i8, ptr @_ZN6icu_779ScriptRun11pairedCharsE, i64 8), align 8, !tbaa !4
  %.not = icmp slt i32 %0, %2
  %spec.select = select i1 %.not, i32 0, i32 2
  br label %3

3:                                                ; preds = %1, %3
  %.116 = phi i32 [ %spec.select, %1 ], [ %spec.select14, %3 ]
  %.01115 = phi i32 [ 32, %1 ], [ %4, %3 ]
  %4 = lshr i32 %.01115, 1
  %5 = add nsw i32 %.116, %4
  %6 = sext i32 %5 to i64
  %7 = getelementptr inbounds [34 x i32], ptr @_ZN6icu_779ScriptRun11pairedCharsE, i64 0, i64 %6
  %8 = load i32, ptr %7, align 4, !tbaa !4
  %.not13 = icmp slt i32 %0, %8
  %spec.select14 = select i1 %.not13, i32 %.116, i32 %5
  %9 = icmp samesign ugt i32 %.01115, 3
  br i1 %9, label %3, label %10, !llvm.loop !8

10:                                               ; preds = %3
  %11 = sext i32 %spec.select14 to i64
  %12 = getelementptr inbounds [34 x i32], ptr @_ZN6icu_779ScriptRun11pairedCharsE, i64 0, i64 %11
  %13 = load i32, ptr %12, align 4, !tbaa !4
  %.not12 = icmp eq i32 %13, %0
  %spec.store.select = select i1 %.not12, i32 %spec.select14, i32 -1
  ret i32 %spec.store.select
}